target datalayout = "e-m:e-p270:32:32-p271:32:32-p272:64:64-i64:64-i128:128-f80:128-n8:16:32:64-S128"
target triple = "x86_64-pc-linux-gnu"

%struct.quic_tserver_args_st = type { ptr, ptr, ptr, ptr, ptr, ptr, ptr, ptr, i64 }
%struct.quic_tserver_st = type { %struct.quic_tserver_args_st, ptr, ptr, ptr, ptr, ptr, ptr, ptr, i8 }

@alpn_select_cb.alpndeflt = internal constant [9 x i8] c"\08ossltest", align 1

; Function Attrs: nounwind uwtable
define internal i32 @alpn_select_cb(ptr noundef %0, ptr noundef %1, ptr noundef %2, ptr noundef %3, i32 noundef %4, ptr noundef %5) #0 {
  %7 = alloca i32, align 4
  %8 = alloca ptr, align 8
  %9 = alloca ptr, align 8
  %10 = alloca ptr, align 8
  %11 = alloca ptr, align 8
  %12 = alloca i32, align 4
  %13 = alloca ptr, align 8
  %14 = alloca ptr, align 8
  %15 = alloca ptr, align 8
  %16 = alloca i64, align 8
  %17 = alloca i32, align 4
  store ptr %0, ptr %8, align 8, !tbaa !72
  store ptr %1, ptr %9, align 8, !tbaa !73
  store ptr %2, ptr %10, align 8, !tbaa !8
  store ptr %3, ptr %11, align 8, !tbaa !8
  store i32 %4, ptr %12, align 4, !tbaa !75
  store ptr %5, ptr %13, align 8, !tbaa !25
  call void @llvm.lifetime.start.p0(i64 8, ptr %14) #6
  %18 = load ptr, ptr %13, align 8, !tbaa !25
  store ptr %18, ptr %14, align 8, !tbaa !10
  call void @llvm.lifetime.start.p0(i64 8, ptr %15) #6
  call void @llvm.lifetime.start.p0(i64 8, ptr %16) #6
  %19 = load ptr, ptr %14, align 8, !tbaa !10
  %20 = getelementptr inbounds nuw %struct.quic_tserver_st, ptr %19, i32 0, i32 0
  %21 = getelementptr inbounds nuw %struct.quic_tserver_args_st, ptr %20, i32 0, i32 7
  %22 = load ptr, ptr %21, align 8, !tbaa !76
  %23 = icmp eq ptr %22, null
  br i1 %23, label %24, label %25

24:                                               ; preds = %6
  store ptr @alpn_select_cb.alpndeflt, ptr %15, align 8, !tbaa !8
  store i64 9, ptr %16, align 8, !tbaa !26
  br label %34

25:                                               ; preds = %6
  %26 = load ptr, ptr %14, align 8, !tbaa !10
  %27 = getelementptr inbounds nuw %struct.quic_tserver_st, ptr %26, i32 0, i32 0
  %28 = getelementptr inbounds nuw %struct.quic_tserver_args_st, ptr %27, i32 0, i32 7
  %29 = load ptr, ptr %28, align 8, !tbaa !76
  store ptr %29, ptr %15, align 8, !tbaa !8
  %30 = load ptr, ptr %14, align 8, !tbaa !10
  %31 = getelementptr inbounds nuw %struct.quic_tserver_st, ptr %30, i32 0, i32 0
  %32 = getelementptr inbounds nuw %struct.quic_tserver_args_st, ptr %31, i32 0, i32 8
  %33 = load i64, ptr %32, align 8, !tbaa !77
  store i64 %33, ptr %16, align 8, !tbaa !26
  br label %34

34:                                               ; preds = %25, %24
  %35 = load ptr, ptr %9, align 8, !tbaa !73
  %36 = load ptr, ptr %10, align 8, !tbaa !8
  %37 = load ptr, ptr %15, align 8, !tbaa !8
  %38 = load i64, ptr %16, align 8, !tbaa !26
  %39 = trunc i64 %38 to i32
  %40 = load ptr, ptr %11, align 8, !tbaa !8
  %41 = load i32, ptr %12, align 4, !tbaa !75
  %42 = call i32 @SSL_select_next_proto(ptr noundef %35, ptr noundef %36, ptr noundef %37, i32 noundef %39, ptr noundef %40, i32 noundef %41)
  %43 = icmp ne i32 %42, 1
  br i1 %43, label %44, label %45

44:                                               ; preds = %34
  store i32 2, ptr %7, align 4
  store i32 1, ptr %17, align 4
  br label %46

45:                                               ; preds = %34
  store i32 0, ptr %7, align 4
  store i32 1, ptr %17, align 4
  br label %46

46:                                               ; preds = %45, %44
  call void @llvm.lifetime.end.p0(i64 8, ptr %16) #6
  call void @llvm.lifetime.end.p0(i64 8, ptr %15) #6
  call void @llvm.lifetime.end.p0(i64 8, ptr %14) #6
  %47 = load i32, ptr %7, align 4
  ret i32 %47
}