; Function Attrs: nounwind uwtable
define internal range(i32 0, 3) i32 @alpn_select_cb(ptr readnone captures(none) %0, ptr noundef %1, ptr noundef %2, ptr noundef %3, i32 noundef %4, ptr noundef readonly captures(none) %5) #0 {
  %7 = getelementptr inbounds nuw i8, ptr %5, i64 56
  %8 = load ptr, ptr %7, align 8, !tbaa !66
  %9 = icmp eq ptr %8, null
  br i1 %9, label %14, label %10

10:                                               ; preds = %6
  %11 = getelementptr inbounds nuw i8, ptr %5, i64 64
  %12 = load i64, ptr %11, align 8, !tbaa !67
  %13 = trunc i64 %12 to i32
  br label %14

14:                                               ; preds = %6, %10
  %.010 = phi ptr [ %8, %10 ], [ @alpn_select_cb.alpndeflt, %6 ]
  %.0 = phi i32 [ %13, %10 ], [ 9, %6 ]
  %15 = tail call i32 @SSL_select_next_proto(ptr noundef %1, ptr noundef %2, ptr noundef nonnull %.010, i32 noundef %.0, ptr noundef %3, i32 noundef %4) #6
  %.not = icmp eq i32 %15, 1
  %. = select i1 %.not, i32 0, i32 2
  ret i32 %.
}